target datalayout = "e-m:e-p270:32:32-p271:32:32-p272:64:64-i64:64-i128:128-f80:128-n8:16:32:64-S128"
target triple = "x86_64-pc-linux-gnu"

%struct._packet_info = type { ptr, ptr, i32, i32, %struct.nstime_t, %struct.nstime_t, %struct.nstime_t, i8, ptr, ptr, ptr, ptr, %struct._address, %struct._address, %struct._address, %struct._address, %struct._address, %struct._address, i32, ptr, i8, [3 x i8], %struct.anon, i32, i32, i32, i32, ptr, i8, ptr, ptr, i16, i16, i32, i32, i16, i32, i32, ptr, ptr, ptr, i8, i8, i16, i16, i16, i32, i16, i16, ptr, ptr, ptr, ptr, ptr, i32, i32 }
%struct.nstime_t = type { i64, i32 }
%struct._address = type { i32, i32, ptr, ptr }
%struct.anon = type { i8, [3 x i8] }

@hf_giop_repoid = internal global i32 0, align 4
@hf_giop_typecode_count = internal global i32 0, align 4
@hf_giop_typecode_member_name = internal global i32 0, align 4
@hf_giop_typecode_name = internal global i32 0, align 4

; Function Attrs: null_pointer_is_valid sspstrong uwtable
define i32 @get_CDR_typeCode(ptr noundef %0, ptr noundef %1, ptr noundef %2, ptr noundef %3, i1 noundef zeroext %4, i32 noundef %5, ptr noundef %6) #0 {
  %8 = alloca ptr, align 8
  %9 = alloca ptr, align 8
  %10 = alloca ptr, align 8
  %11 = alloca ptr, align 8
  %12 = alloca i8, align 1
  %13 = alloca i32, align 4
  %14 = alloca ptr, align 8
  %15 = alloca ptr, align 8
  %16 = alloca i32, align 4
  store ptr %0, ptr %8, align 8
  store ptr %1, ptr %9, align 8
  store ptr %2, ptr %10, align 8
  store ptr %3, ptr %11, align 8
  %17 = zext i1 %4 to i8
  store i8 %17, ptr %12, align 1
  store i32 %5, ptr %13, align 4
  store ptr %6, ptr %14, align 8
  call void @llvm.lifetime.start.p0(i64 8, ptr %15) #14
  %18 = load ptr, ptr %9, align 8
  %19 = getelementptr inbounds nuw %struct._packet_info, ptr %18, i32 0, i32 51
  %20 = load ptr, ptr %19, align 8
  %21 = call noalias ptr @wmem_list_new(ptr noundef %20)
  store ptr %21, ptr %15, align 8
  call void @llvm.lifetime.start.p0(i64 4, ptr %16) #14
  %22 = load ptr, ptr %8, align 8
  %23 = load ptr, ptr %9, align 8
  %24 = load ptr, ptr %10, align 8
  %25 = load ptr, ptr %11, align 8
  %26 = load i8, ptr %12, align 1, !range !8, !noundef !9
  %27 = trunc i8 %26 to i1
  %28 = load i32, ptr %13, align 4
  %29 = load ptr, ptr %14, align 8
  %30 = load ptr, ptr %15, align 8
  %31 = call i32 @get_CDR_typeCode_with_params(ptr noundef %22, ptr noundef %23, ptr noundef %24, ptr noundef %25, i1 noundef zeroext %27, i32 noundef %28, ptr noundef %29, ptr noundef %30)
  store i32 %31, ptr %16, align 4
  %32 = load ptr, ptr %15, align 8
  call void @wmem_destroy_list(ptr noundef %32)
  %33 = load i32, ptr %16, align 4
  call void @llvm.lifetime.end.p0(i64 4, ptr %16) #14
  call void @llvm.lifetime.end.p0(i64 8, ptr %15) #14
  ret i32 %33
}

; Function Attrs: null_pointer_is_valid sspstrong uwtable
define i32 @get_CDR_ulong(ptr noundef %0, ptr noundef %1, i1 noundef zeroext %2, i32 noundef %3) #0 {
  %5 = alloca ptr, align 8
  %6 = alloca ptr, align 8
  %7 = alloca i8, align 1
  %8 = alloca i32, align 4
  %9 = alloca i32, align 4
  store ptr %0, ptr %5, align 8
  store ptr %1, ptr %6, align 8
  %10 = zext i1 %2 to i8
  store i8 %10, ptr %7, align 1
  store i32 %3, ptr %8, align 4
  call void @llvm.lifetime.start.p0(i64 4, ptr %9) #14
  br label %11

11:                                               ; preds = %18, %4
  %12 = load ptr, ptr %6, align 8
  %13 = load i32, ptr %12, align 4
  %14 = load i32, ptr %8, align 4
  %15 = add i32 %13, %14
  %16 = srem i32 %15, 4
  %17 = icmp ne i32 %16, 0
  br i1 %17, label %18, label %22

18:                                               ; preds = %11
  %19 = load ptr, ptr %6, align 8
  %20 = load i32, ptr %19, align 4
  %21 = add i32 %20, 1
  store i32 %21, ptr %19, align 4
  br label %11, !llvm.loop !10

22:                                               ; preds = %11
  %23 = load i8, ptr %7, align 1, !range !8, !noundef !9
  %24 = trunc i8 %23 to i1
  br i1 %24, label %25, label %30

25:                                               ; preds = %22
  %26 = load ptr, ptr %5, align 8
  %27 = load ptr, ptr %6, align 8
  %28 = load i32, ptr %27, align 4
  %29 = call i32 @tvb_get_ntohl(ptr noundef %26, i32 noundef %28)
  br label %35

30:                                               ; preds = %22
  %31 = load ptr, ptr %5, align 8
  %32 = load ptr, ptr %6, align 8
  %33 = load i32, ptr %32, align 4
  %34 = call i32 @tvb_get_letohl(ptr noundef %31, i32 noundef %33)
  br label %35

35:                                               ; preds = %30, %25
  %36 = phi i32 [ %29, %25 ], [ %34, %30 ]
  store i32 %36, ptr %9, align 4
  %37 = load ptr, ptr %6, align 8
  %38 = load i32, ptr %37, align 4
  %39 = add i32 %38, 4
  store i32 %39, ptr %37, align 4
  %40 = load i32, ptr %9, align 4
  call void @llvm.lifetime.end.p0(i64 4, ptr %9) #14
  ret i32 %40
}

; Function Attrs: null_pointer_is_valid sspstrong uwtable
define internal void @dissect_tk_except_params(ptr noundef %0, ptr noundef %1, ptr noundef %2, ptr noundef %3, i1 noundef zeroext %4, i32 noundef %5, ptr noundef %6) #0 {
  %8 = alloca ptr, align 8
  %9 = alloca ptr, align 8
  %10 = alloca ptr, align 8
  %11 = alloca ptr, align 8
  %12 = alloca i8, align 1
  %13 = alloca i32, align 4
  %14 = alloca ptr, align 8
  %15 = alloca i32, align 4
  %16 = alloca i8, align 1
  %17 = alloca i32, align 4
  %18 = alloca i32, align 4
  %19 = alloca ptr, align 8
  store ptr %0, ptr %8, align 8
  store ptr %1, ptr %9, align 8
  store ptr %2, ptr %10, align 8
  store ptr %3, ptr %11, align 8
  %20 = zext i1 %4 to i8
  store i8 %20, ptr %12, align 1
  store i32 %5, ptr %13, align 4
  store ptr %6, ptr %14, align 8
  call void @llvm.lifetime.start.p0(i64 4, ptr %15) #14
  call void @llvm.lifetime.start.p0(i64 1, ptr %16) #14
  call void @llvm.lifetime.start.p0(i64 4, ptr %17) #14
  call void @llvm.lifetime.start.p0(i64 4, ptr %18) #14
  %21 = load ptr, ptr %8, align 8
  %22 = load ptr, ptr %10, align 8
  %23 = load ptr, ptr %11, align 8
  %24 = load i8, ptr %12, align 1, !range !8, !noundef !9
  %25 = trunc i8 %24 to i1
  %26 = load i32, ptr %13, align 4
  %27 = call i32 @get_CDR_encap_info(ptr noundef %21, ptr noundef %22, ptr noundef %23, i1 noundef zeroext %25, i32 noundef %26, ptr noundef %16, ptr noundef %15)
  call void @llvm.lifetime.start.p0(i64 8, ptr %19) #14
  store ptr null, ptr %19, align 8
  %28 = load ptr, ptr %8, align 8
  %29 = load ptr, ptr %10, align 8
  %30 = load ptr, ptr %11, align 8
  %31 = load i8, ptr %16, align 1, !range !8, !noundef !9
  %32 = trunc i8 %31 to i1
  %33 = load i32, ptr %15, align 4
  %34 = load i32, ptr @hf_giop_repoid, align 4
  call void @dissect_typecode_string_param(ptr noundef %28, ptr noundef %29, ptr noundef %30, i1 noundef zeroext %32, i32 noundef %33, i32 noundef %34, ptr noundef %19)
  %35 = load ptr, ptr %8, align 8
  %36 = load ptr, ptr %10, align 8
  %37 = load ptr, ptr %11, align 8
  %38 = load i8, ptr %16, align 1, !range !8, !noundef !9
  %39 = trunc i8 %38 to i1
  %40 = load i32, ptr %15, align 4
  %41 = load i32, ptr @hf_giop_typecode_name, align 4
  call void @dissect_typecode_string_param(ptr noundef %35, ptr noundef %36, ptr noundef %37, i1 noundef zeroext %39, i32 noundef %40, i32 noundef %41, ptr noundef %19)
  %42 = load ptr, ptr %8, align 8
  %43 = load ptr, ptr %11, align 8
  %44 = load i8, ptr %16, align 1, !range !8, !noundef !9
  %45 = trunc i8 %44 to i1
  %46 = load i32, ptr %15, align 4
  %47 = call i32 @get_CDR_ulong(ptr noundef %42, ptr noundef %43, i1 noundef zeroext %45, i32 noundef %46)
  store i32 %47, ptr %17, align 4
  %48 = load ptr, ptr %10, align 8
  %49 = icmp ne ptr %48, null
  br i1 %49, label %50, label %59

50:                                               ; preds = %7
  %51 = load ptr, ptr %10, align 8
  %52 = load i32, ptr @hf_giop_typecode_count, align 4
  %53 = load ptr, ptr %8, align 8
  %54 = load ptr, ptr %11, align 8
  %55 = load i32, ptr %54, align 4
  %56 = sub i32 %55, 4
  %57 = load i32, ptr %17, align 4
  %58 = call ptr @proto_tree_add_uint(ptr noundef %51, i32 noundef %52, ptr noundef %53, i32 noundef %56, i32 noundef 4, i32 noundef %57)
  br label %59

59:                                               ; preds = %50, %7
  store i32 0, ptr %18, align 4
  br label %60

60:                                               ; preds = %81, %59
  %61 = load i32, ptr %18, align 4
  %62 = load i32, ptr %17, align 4
  %63 = icmp ult i32 %61, %62
  br i1 %63, label %64, label %84

64:                                               ; preds = %60
  %65 = load ptr, ptr %8, align 8
  %66 = load ptr, ptr %10, align 8
  %67 = load ptr, ptr %11, align 8
  %68 = load i8, ptr %16, align 1, !range !8, !noundef !9
  %69 = trunc i8 %68 to i1
  %70 = load i32, ptr %15, align 4
  %71 = load i32, ptr @hf_giop_typecode_member_name, align 4
  call void @dissect_typecode_string_param(ptr noundef %65, ptr noundef %66, ptr noundef %67, i1 noundef zeroext %69, i32 noundef %70, i32 noundef %71, ptr noundef %19)
  %72 = load ptr, ptr %8, align 8
  %73 = load ptr, ptr %9, align 8
  %74 = load ptr, ptr %10, align 8
  %75 = load ptr, ptr %11, align 8
  %76 = load i8, ptr %16, align 1, !range !8, !noundef !9
  %77 = trunc i8 %76 to i1
  %78 = load i32, ptr %15, align 4
  %79 = load ptr, ptr %14, align 8
  %80 = call i32 @get_CDR_typeCode(ptr noundef %72, ptr noundef %73, ptr noundef %74, ptr noundef %75, i1 noundef zeroext %77, i32 noundef %78, ptr noundef %79)
  br label %81

81:                                               ; preds = %64
  %82 = load i32, ptr %18, align 4
  %83 = add i32 %82, 1
  store i32 %83, ptr %18, align 4
  br label %60, !llvm.loop !31

84:                                               ; preds = %60
  call void @llvm.lifetime.end.p0(i64 8, ptr %19) #14
  call void @llvm.lifetime.end.p0(i64 4, ptr %18) #14
  call void @llvm.lifetime.end.p0(i64 4, ptr %17) #14
  call void @llvm.lifetime.end.p0(i64 1, ptr %16) #14
  call void @llvm.lifetime.end.p0(i64 4, ptr %15) #14
  ret void
}