; Function Attrs: null_pointer_is_valid sspstrong uwtable
define internal fastcc void @dissect_tk_except_params(ptr noundef %0, ptr noundef %1, ptr noundef %2, ptr noundef captures(none) %3, i1 noundef zeroext %4, i32 noundef %5, ptr noundef readonly captures(none) %6) unnamed_addr #0 {
  %8 = alloca i32, align 4
  %9 = alloca i8, align 1
  %10 = alloca ptr, align 8
  call void @llvm.lifetime.start.p0(i64 4, ptr nonnull %8) #17
  call void @llvm.lifetime.start.p0(i64 1, ptr nonnull %9) #17
  %11 = call i32 @get_CDR_encap_info(ptr noundef %0, ptr noundef %2, ptr noundef %3, i1 noundef zeroext %4, i32 noundef %5, ptr noundef nonnull %9, ptr noundef nonnull %8)
  call void @llvm.lifetime.start.p0(i64 8, ptr nonnull %10) #17
  %12 = load i8, ptr %9, align 1, !range !29, !noundef !30
  %13 = trunc nuw i8 %12 to i1
  %14 = load i32, ptr %8, align 4
  %15 = load i32, ptr @hf_giop_repoid, align 4
  call fastcc void @dissect_typecode_string_param(ptr noundef %0, ptr noundef %2, ptr noundef %3, i1 noundef zeroext %13, i32 noundef %14, i32 noundef %15, ptr noundef nonnull %10)
  %16 = load i32, ptr @hf_giop_typecode_name, align 4
  call fastcc void @dissect_typecode_string_param(ptr noundef %0, ptr noundef %2, ptr noundef %3, i1 noundef zeroext %13, i32 noundef %14, i32 noundef %16, ptr noundef nonnull %10)
  %.promoted.i = load i32, ptr %3, align 4
  %17 = add i32 %.promoted.i, %14
  %18 = and i32 %17, 3
  %.not9.i = icmp eq i32 %18, 0
  br i1 %.not9.i, label %20, label %.lr.ph.preheader.i

.lr.ph.preheader.i:                               ; preds = %7
  %19 = or i32 %17, -4
  %sub = sub i32 %.promoted.i, %19
  store i32 %sub, ptr %3, align 4
  br label %20

20:                                               ; preds = %.lr.ph.preheader.i, %7
  %.lcssa.i = phi i32 [ %sub, %.lr.ph.preheader.i ], [ %.promoted.i, %7 ]
  br i1 %13, label %21, label %23

21:                                               ; preds = %20
  %22 = tail call i32 @tvb_get_ntohl(ptr noundef %0, i32 noundef %.lcssa.i)
  br label %get_CDR_ulong.exit

23:                                               ; preds = %20
  %24 = tail call i32 @tvb_get_letohl(ptr noundef %0, i32 noundef %.lcssa.i)
  br label %get_CDR_ulong.exit

get_CDR_ulong.exit:                               ; preds = %21, %23
  %25 = phi i32 [ %22, %21 ], [ %24, %23 ]
  %26 = load i32, ptr %3, align 4
  %27 = add i32 %26, 4
  store i32 %27, ptr %3, align 4
  %.not = icmp eq ptr %2, null
  br i1 %.not, label %31, label %28

28:                                               ; preds = %get_CDR_ulong.exit
  %29 = load i32, ptr @hf_giop_typecode_count, align 4
  %30 = tail call ptr @proto_tree_add_uint(ptr noundef nonnull %2, i32 noundef %29, ptr noundef %0, i32 noundef %26, i32 noundef 4, i32 noundef %25)
  br label %31

31:                                               ; preds = %28, %get_CDR_ulong.exit
  %.not30 = icmp eq i32 %25, 0
  br i1 %.not30, label %._crit_edge, label %.lr.ph

.lr.ph:                                           ; preds = %31
  %32 = getelementptr inbounds nuw i8, ptr %1, i64 408
  br label %33

33:                                               ; preds = %.lr.ph, %33
  %.029 = phi i32 [ 0, %.lr.ph ], [ %38, %33 ]
  %34 = load i32, ptr @hf_giop_typecode_member_name, align 4
  call fastcc void @dissect_typecode_string_param(ptr noundef %0, ptr noundef %2, ptr noundef %3, i1 noundef zeroext %13, i32 noundef %14, i32 noundef %34, ptr noundef nonnull %10)
  %35 = load ptr, ptr %32, align 8
  %36 = tail call noalias ptr @wmem_list_new(ptr noundef %35)
  %37 = tail call fastcc i32 @get_CDR_typeCode_with_params(ptr noundef %0, ptr noundef %1, ptr noundef %2, ptr noundef %3, i1 noundef zeroext %13, i32 noundef %14, ptr noundef %6, ptr noundef %36)
  tail call void @wmem_destroy_list(ptr noundef %36)
  %38 = add nuw i32 %.029, 1
  %exitcond.not = icmp eq i32 %38, %25
  br i1 %exitcond.not, label %._crit_edge, label %33, !llvm.loop !37

._crit_edge:                                      ; preds = %33, %31
  call void @llvm.lifetime.end.p0(i64 8, ptr nonnull %10) #17
  call void @llvm.lifetime.end.p0(i64 1, ptr nonnull %9) #17
  call void @llvm.lifetime.end.p0(i64 4, ptr nonnull %8) #17
  ret void
}